; Function Attrs: inlinehint mustprogress nofree norecurse nosync nounwind willreturn memory(argmem: readwrite) uwtable
define internal fastcc void @x64_mulmod2c(ptr noundef nonnull captures(none) %0, ptr noundef nonnull captures(none) %1, i64 noundef %2, i64 noundef %3) unnamed_addr #4 {
  %5 = load i64, ptr %0, align 8, !tbaa !3
  %6 = zext i64 %5 to i128
  %7 = zext i64 %2 to i128
  %8 = mul nuw i128 %6, %7
  %9 = lshr i128 %8, 64
  %10 = trunc nuw i128 %9 to i64
  %11 = trunc i128 %8 to i64
  %12 = and i64 %3, 4294967296
  %.not.i = icmp eq i64 %12, 0
  br i1 %.not.i, label %21, label %13

13:                                               ; preds = %4
  %14 = lshr i64 %10, 32
  %15 = sub i64 %11, %10
  %16 = icmp ugt i64 %10, %11
  %17 = sext i1 %16 to i64
  %spec.select.i = add nsw i64 %14, %17
  %18 = shl i64 %10, 32
  %19 = add i64 %18, %15
  %20 = icmp ult i64 %19, %18
  br label %x64_mulmod.exit

21:                                               ; preds = %4
  %22 = and i64 %3, 17179869184
  %.not62.i = icmp eq i64 %22, 0
  %23 = sub i64 %11, %10
  %24 = icmp ugt i64 %10, %11
  %25 = sext i1 %24 to i64
  br i1 %.not62.i, label %39, label %26

26:                                               ; preds = %21
  %27 = lshr i64 %10, 30
  %spec.select104.i = add nsw i64 %27, %25
  %28 = shl i64 %10, 34
  %29 = add i64 %28, %23
  %30 = icmp ult i64 %29, %28
  %31 = zext i1 %30 to i64
  %.5.i = add nsw i64 %spec.select104.i, %31
  %32 = lshr i64 %.5.i, 30
  %33 = sub i64 %29, %.5.i
  %34 = icmp ugt i64 %.5.i, %29
  %35 = sext i1 %34 to i64
  %.6.i = add nsw i64 %32, %35
  %36 = shl i64 %.5.i, 34
  %37 = add i64 %36, %33
  %38 = icmp ult i64 %37, %36
  br label %x64_mulmod.exit

39:                                               ; preds = %21
  %40 = lshr i64 %10, 24
  %spec.select105.i = add nsw i64 %40, %25
  %41 = shl i64 %10, 40
  %42 = add i64 %41, %23
  %43 = icmp ult i64 %42, %41
  %44 = zext i1 %43 to i64
  %.11.i = add nsw i64 %spec.select105.i, %44
  %45 = lshr i64 %.11.i, 24
  %46 = sub i64 %42, %.11.i
  %47 = icmp ugt i64 %.11.i, %42
  %48 = sext i1 %47 to i64
  %.12.i = add nsw i64 %45, %48
  %49 = shl i64 %.11.i, 40
  %50 = add i64 %49, %46
  %51 = icmp ult i64 %50, %49
  br label %x64_mulmod.exit

x64_mulmod.exit:                                  ; preds = %13, %26, %39
  %.sink128.i = phi i1 [ %51, %39 ], [ %38, %26 ], [ %20, %13 ]
  %.12.sink.i = phi i64 [ %.12.i, %39 ], [ %.6.i, %26 ], [ %spec.select.i, %13 ]
  %.sink126.i = phi i64 [ 24, %39 ], [ 30, %26 ], [ 32, %13 ]
  %.sink123.i = phi i64 [ %50, %39 ], [ %37, %26 ], [ %19, %13 ]
  %.sink.i = phi i64 [ 40, %39 ], [ 34, %26 ], [ 32, %13 ]
  %52 = zext i1 %.sink128.i to i64
  %.13.i = add nsw i64 %.12.sink.i, %52
  %53 = lshr i64 %.13.i, %.sink126.i
  %54 = sub i64 %.sink123.i, %.13.i
  %55 = icmp ugt i64 %.13.i, %.sink123.i
  %56 = sext i1 %55 to i64
  %.14.i = add nsw i64 %53, %56
  %57 = shl i64 %.13.i, %.sink.i
  %58 = add i64 %57, %54
  %59 = icmp ult i64 %58, %57
  %.neg110.i = sext i1 %59 to i64
  %.not63.i = icmp eq i64 %.14.i, %.neg110.i
  %.not64.i = icmp ult i64 %58, %3
  %or.cond70.i = select i1 %.not63.i, i1 %.not64.i, i1 false
  %60 = select i1 %or.cond70.i, i64 0, i64 %3
  %spec.select108.i = sub i64 %58, %60
  store i64 %spec.select108.i, ptr %0, align 8, !tbaa !3
  %61 = load i64, ptr %1, align 8, !tbaa !3
  %62 = zext i64 %61 to i128
  %63 = mul nuw i128 %62, %7
  %64 = lshr i128 %63, 64
  %65 = trunc nuw i128 %64 to i64
  %66 = trunc i128 %63 to i64
  br i1 %.not.i, label %75, label %67

67:                                               ; preds = %x64_mulmod.exit
  %68 = lshr i64 %65, 32
  %69 = sub i64 %66, %65
  %70 = icmp ugt i64 %65, %66
  %71 = sext i1 %70 to i64
  %spec.select.i8 = add nsw i64 %68, %71
  %72 = shl i64 %65, 32
  %73 = add i64 %72, %69
  %74 = icmp ult i64 %73, %72
  br label %x64_mulmod.exit28

75:                                               ; preds = %x64_mulmod.exit
  %76 = and i64 %3, 17179869184
  %.not62.i21 = icmp eq i64 %76, 0
  %77 = sub i64 %66, %65
  %78 = icmp ugt i64 %65, %66
  %79 = sext i1 %78 to i64
  br i1 %.not62.i21, label %93, label %80

80:                                               ; preds = %75
  %81 = lshr i64 %65, 30
  %spec.select104.i22 = add nsw i64 %81, %79
  %82 = shl i64 %65, 34
  %83 = add i64 %82, %77
  %84 = icmp ult i64 %83, %82
  %85 = zext i1 %84 to i64
  %.5.i23 = add nsw i64 %spec.select104.i22, %85
  %86 = lshr i64 %.5.i23, 30
  %87 = sub i64 %83, %.5.i23
  %88 = icmp ugt i64 %.5.i23, %83
  %89 = sext i1 %88 to i64
  %.6.i24 = add nsw i64 %86, %89
  %90 = shl i64 %.5.i23, 34
  %91 = add i64 %90, %87
  %92 = icmp ult i64 %91, %90
  br label %x64_mulmod.exit28

93:                                               ; preds = %75
  %94 = lshr i64 %65, 24
  %spec.select105.i25 = add nsw i64 %94, %79
  %95 = shl i64 %65, 40
  %96 = add i64 %95, %77
  %97 = icmp ult i64 %96, %95
  %98 = zext i1 %97 to i64
  %.11.i26 = add nsw i64 %spec.select105.i25, %98
  %99 = lshr i64 %.11.i26, 24
  %100 = sub i64 %96, %.11.i26
  %101 = icmp ugt i64 %.11.i26, %96
  %102 = sext i1 %101 to i64
  %.12.i27 = add nsw i64 %99, %102
  %103 = shl i64 %.11.i26, 40
  %104 = add i64 %103, %100
  %105 = icmp ult i64 %104, %103
  br label %x64_mulmod.exit28

x64_mulmod.exit28:                                ; preds = %67, %80, %93
  %.sink128.i9 = phi i1 [ %105, %93 ], [ %92, %80 ], [ %74, %67 ]
  %.12.sink.i10 = phi i64 [ %.12.i27, %93 ], [ %.6.i24, %80 ], [ %spec.select.i8, %67 ]
  %.sink126.i11 = phi i64 [ 24, %93 ], [ 30, %80 ], [ 32, %67 ]
  %.sink123.i12 = phi i64 [ %104, %93 ], [ %91, %80 ], [ %73, %67 ]
  %.sink.i13 = phi i64 [ 40, %93 ], [ 34, %80 ], [ 32, %67 ]
  %106 = zext i1 %.sink128.i9 to i64
  %.13.i14 = add nsw i64 %.12.sink.i10, %106
  %107 = lshr i64 %.13.i14, %.sink126.i11
  %108 = sub i64 %.sink123.i12, %.13.i14
  %109 = icmp ugt i64 %.13.i14, %.sink123.i12
  %110 = sext i1 %109 to i64
  %.14.i15 = add nsw i64 %107, %110
  %111 = shl i64 %.13.i14, %.sink.i13
  %112 = add i64 %111, %108
  %113 = icmp ult i64 %112, %111
  %.neg110.i16 = sext i1 %113 to i64
  %.not63.i17 = icmp eq i64 %.14.i15, %.neg110.i16
  %.not64.i18 = icmp ult i64 %112, %3
  %or.cond70.i19 = select i1 %.not63.i17, i1 %.not64.i18, i1 false
  %114 = select i1 %or.cond70.i19, i64 0, i64 %3
  %spec.select108.i20 = sub i64 %112, %114
  store i64 %spec.select108.i20, ptr %1, align 8, !tbaa !3
  ret void
}